target datalayout = "e-m:e-p270:32:32-p271:32:32-p272:64:64-i64:64-i128:128-f80:128-n8:16:32:64-S128"
target triple = "x86_64-pc-linux-gnu"

%"struct.std::_Rb_tree_header" = type { %"struct.std::_Rb_tree_node_base", i64 }
%"struct.std::_Rb_tree_node_base" = type { i32, ptr, ptr, ptr }
%"class.std::__cxx11::basic_string" = type { %"struct.std::__cxx11::basic_string<char>::_Alloc_hider", i64, %union.anon }
%"struct.std::__cxx11::basic_string<char>::_Alloc_hider" = type { ptr }
%union.anon = type { i64, [8 x i8] }
%"class.std::deque.54" = type { %"class.std::_Deque_base.55" }
%"class.std::_Deque_base.55" = type { %"struct.std::_Deque_base<std::__cxx11::basic_string<char>, std::allocator<std::__cxx11::basic_string<char>>>::_Deque_impl" }
%"struct.std::_Deque_base<std::__cxx11::basic_string<char>, std::allocator<std::__cxx11::basic_string<char>>>::_Deque_impl" = type { %"struct.std::_Deque_base<std::__cxx11::basic_string<char>, std::allocator<std::__cxx11::basic_string<char>>>::_Deque_impl_data" }
%"struct.std::_Deque_base<std::__cxx11::basic_string<char>, std::allocator<std::__cxx11::basic_string<char>>>::_Deque_impl_data" = type { ptr, i64, %"struct.std::_Deque_iterator.56", %"struct.std::_Deque_iterator.56" }
%"struct.std::_Deque_iterator.56" = type { ptr, ptr, ptr, ptr }
%class.V3ErrorCode = type { i8 }
%class.V3PreLex = type <{ ptr, %"class.std::stack", i32, [4 x i8], ptr, ptr, %"class.std::deque.0", i32, i32, i8, [3 x i8], i32, i32, i8, i8, [2 x i8], %"class.std::__cxx11::basic_string", i32, i32, i32, i8, [3 x i8] }>
%"class.std::stack" = type { %"class.std::deque" }
%"class.std::deque" = type { %"class.std::_Deque_base" }
%"class.std::_Deque_base" = type { %"struct.std::_Deque_base<VPreStream *, std::allocator<VPreStream *>>::_Deque_impl" }
%"struct.std::_Deque_base<VPreStream *, std::allocator<VPreStream *>>::_Deque_impl" = type { %"struct.std::_Deque_base<VPreStream *, std::allocator<VPreStream *>>::_Deque_impl_data" }
%"struct.std::_Deque_base<VPreStream *, std::allocator<VPreStream *>>::_Deque_impl_data" = type { ptr, i64, %"struct.std::_Deque_iterator", %"struct.std::_Deque_iterator" }
%"struct.std::_Deque_iterator" = type { ptr, ptr, ptr, ptr }
%"class.std::deque.0" = type { %"class.std::_Deque_base.1" }
%"class.std::_Deque_base.1" = type { %"struct.std::_Deque_base<FileLine, std::allocator<FileLine>>::_Deque_impl" }
%"struct.std::_Deque_base<FileLine, std::allocator<FileLine>>::_Deque_impl" = type { %"struct.std::_Deque_base<FileLine, std::allocator<FileLine>>::_Deque_impl_data" }
%"struct.std::_Deque_base<FileLine, std::allocator<FileLine>>::_Deque_impl_data" = type { ptr, i64, %"struct.std::_Deque_iterator.5", %"struct.std::_Deque_iterator.5" }
%"struct.std::_Deque_iterator.5" = type { ptr, ptr, ptr, ptr }
%class.V3PreProcImp = type { %class.V3PreProc, %"class.std::map.58", ptr, ptr, %"class.std::stack.63", i32, i32, %"class.std::stack.70", i32, i8, %"class.std::__cxx11::basic_string", %"class.std::__cxx11::basic_string", %"class.std::__cxx11::basic_string", i8, i32, i8, i8, i32, %"class.std::__cxx11::basic_string", i8, ptr, %"class.std::__cxx11::basic_string", %"class.std::stack.77", %"class.std::stack.84", i32, i8, %"class.std::stack.91", %class.V3PreExpr, i32, %"class.std::__cxx11::basic_string" }
%class.V3PreProc = type { ptr }
%"class.std::map.58" = type { %"class.std::_Rb_tree.59" }
%"class.std::_Rb_tree.59" = type { %"struct.std::_Rb_tree<const std::__cxx11::basic_string<char>, std::pair<const std::__cxx11::basic_string<char>, VDefine>, std::_Select1st<std::pair<const std::__cxx11::basic_string<char>, VDefine>>, std::less<const std::__cxx11::basic_string<char>>>::_Rb_tree_impl" }
%"struct.std::_Rb_tree<const std::__cxx11::basic_string<char>, std::pair<const std::__cxx11::basic_string<char>, VDefine>, std::_Select1st<std::pair<const std::__cxx11::basic_string<char>, VDefine>>, std::less<const std::__cxx11::basic_string<char>>>::_Rb_tree_impl" = type { [8 x i8], %"struct.std::_Rb_tree_header" }
%"class.std::stack.63" = type { %"class.std::deque.64" }
%"class.std::deque.64" = type { %"class.std::_Deque_base.65" }
%"class.std::_Deque_base.65" = type { %"struct.std::_Deque_base<V3PreLex *, std::allocator<V3PreLex *>>::_Deque_impl" }
%"struct.std::_Deque_base<V3PreLex *, std::allocator<V3PreLex *>>::_Deque_impl" = type { %"struct.std::_Deque_base<V3PreLex *, std::allocator<V3PreLex *>>::_Deque_impl_data" }
%"struct.std::_Deque_base<V3PreLex *, std::allocator<V3PreLex *>>::_Deque_impl_data" = type { ptr, i64, %"struct.std::_Deque_iterator.69", %"struct.std::_Deque_iterator.69" }
%"struct.std::_Deque_iterator.69" = type { ptr, ptr, ptr, ptr }
%"class.std::stack.70" = type { %"class.std::deque.71" }
%"class.std::deque.71" = type { %"class.std::_Deque_base.72" }
%"class.std::_Deque_base.72" = type { %"struct.std::_Deque_base<V3PreProcImp::ProcState, std::allocator<V3PreProcImp::ProcState>>::_Deque_impl" }
%"struct.std::_Deque_base<V3PreProcImp::ProcState, std::allocator<V3PreProcImp::ProcState>>::_Deque_impl" = type { %"struct.std::_Deque_base<V3PreProcImp::ProcState, std::allocator<V3PreProcImp::ProcState>>::_Deque_impl_data" }
%"struct.std::_Deque_base<V3PreProcImp::ProcState, std::allocator<V3PreProcImp::ProcState>>::_Deque_impl_data" = type { ptr, i64, %"struct.std::_Deque_iterator.76", %"struct.std::_Deque_iterator.76" }
%"struct.std::_Deque_iterator.76" = type { ptr, ptr, ptr, ptr }
%"class.std::stack.77" = type { %"class.std::deque.78" }
%"class.std::deque.78" = type { %"class.std::_Deque_base.79" }
%"class.std::_Deque_base.79" = type { %"struct.std::_Deque_base<VDefineRef, std::allocator<VDefineRef>>::_Deque_impl" }
%"struct.std::_Deque_base<VDefineRef, std::allocator<VDefineRef>>::_Deque_impl" = type { %"struct.std::_Deque_base<VDefineRef, std::allocator<VDefineRef>>::_Deque_impl_data" }
%"struct.std::_Deque_base<VDefineRef, std::allocator<VDefineRef>>::_Deque_impl_data" = type { ptr, i64, %"struct.std::_Deque_iterator.83", %"struct.std::_Deque_iterator.83" }
%"struct.std::_Deque_iterator.83" = type { ptr, ptr, ptr, ptr }
%"class.std::stack.84" = type { %"class.std::deque.85" }
%"class.std::deque.85" = type { %"class.std::_Deque_base.86" }
%"class.std::_Deque_base.86" = type { %"struct.std::_Deque_base<VPreIfEntry, std::allocator<VPreIfEntry>>::_Deque_impl" }
%"struct.std::_Deque_base<VPreIfEntry, std::allocator<VPreIfEntry>>::_Deque_impl" = type { %"struct.std::_Deque_base<VPreIfEntry, std::allocator<VPreIfEntry>>::_Deque_impl_data" }
%"struct.std::_Deque_base<VPreIfEntry, std::allocator<VPreIfEntry>>::_Deque_impl_data" = type { ptr, i64, %"struct.std::_Deque_iterator.90", %"struct.std::_Deque_iterator.90" }
%"struct.std::_Deque_iterator.90" = type { ptr, ptr, ptr, ptr }
%"class.std::stack.91" = type { %"class.std::deque.54" }
%class.V3PreExpr = type <{ %"class.std::deque.92", %"class.std::deque.92", %"class.std::deque.92", ptr, [10 x [10 x i8]], [4 x i8] }>
%"class.std::deque.92" = type { %"class.std::_Deque_base.93" }
%"class.std::_Deque_base.93" = type { %"struct.std::_Deque_base<V3PreExprToken, std::allocator<V3PreExprToken>>::_Deque_impl" }
%"struct.std::_Deque_base<V3PreExprToken, std::allocator<V3PreExprToken>>::_Deque_impl" = type { %"struct.std::_Deque_base<V3PreExprToken, std::allocator<V3PreExprToken>>::_Deque_impl_data" }
%"struct.std::_Deque_base<V3PreExprToken, std::allocator<V3PreExprToken>>::_Deque_impl_data" = type { ptr, i64, %"struct.std::_Deque_iterator.97", %"struct.std::_Deque_iterator.97" }
%"struct.std::_Deque_iterator.97" = type { ptr, ptr, ptr, ptr }

@_ZL15yy_buffer_stack = internal global ptr null, align 8
@_ZL19yy_buffer_stack_top = internal global i64 0, align 8
@.str.63 = private unnamed_addr constant [115 x i8] c"generated/home/dtcxzyw/WorkSpace/Projects/compilers/llvm-opt-benchmark/bench/verilator/verilator/src/V3PreProc.cpp\00", align 1
@.str.125 = private unnamed_addr constant [60 x i8] c"bufferStack missing current buffer; will return incorrectly\00", align 1

; Function Attrs: mustprogress nounwind uwtable
define linkonce_odr dso_local void @_ZN11V3ErrorCodeC2ENS_2enE(ptr noundef nonnull align 1 dereferenceable(1) %0, i8 noundef zeroext %1) unnamed_addr #4 comdat align 2 {
  %3 = alloca ptr, align 8
  %4 = alloca i8, align 1
  store ptr %0, ptr %3, align 8, !tbaa !78
  store i8 %1, ptr %4, align 1, !tbaa !80
  %5 = load ptr, ptr %3, align 8
  %6 = getelementptr inbounds nuw %class.V3ErrorCode, ptr %5, i32 0, i32 0
  %7 = load i8, ptr %4, align 1, !tbaa !80
  store i8 %7, ptr %6, align 1, !tbaa !82
  ret void
}

; Function Attrs: mustprogress nounwind uwtable
define dso_local noundef ptr @_ZN8V3PreLex13currentBufferEv(ptr noundef nonnull align 8 dereferenceable(264) %0) #4 align 2 {
  %2 = alloca ptr, align 8
  store ptr %0, ptr %2, align 8, !tbaa !26
  %3 = load ptr, ptr @_ZL15yy_buffer_stack, align 8, !tbaa !15
  %4 = icmp ne ptr %3, null
  br i1 %4, label %5, label %10

5:                                                ; preds = %1
  %6 = load ptr, ptr @_ZL15yy_buffer_stack, align 8, !tbaa !15
  %7 = load i64, ptr @_ZL19yy_buffer_stack_top, align 8, !tbaa !11
  %8 = getelementptr inbounds nuw ptr, ptr %6, i64 %7
  %9 = load ptr, ptr %8, align 8, !tbaa !18
  br label %11

10:                                               ; preds = %1
  br label %11

11:                                               ; preds = %10, %5
  %12 = phi ptr [ %9, %5 ], [ null, %10 ]
  ret ptr %12
}

; Function Attrs: mustprogress uwtable
define dso_local void @_ZN12V3PreProcImp11unputStringERKNSt7__cxx1112basic_stringIcSt11char_traitsIcESaIcEEE(ptr noundef nonnull align 8 dereferenceable(1080) %0, ptr noundef nonnull align 8 dereferenceable(32) %1) #5 align 2 {
  %3 = alloca ptr, align 8
  %4 = alloca ptr, align 8
  %5 = alloca %class.V3ErrorCode, align 1
  store ptr %0, ptr %3, align 8, !tbaa !200
  store ptr %1, ptr %4, align 8, !tbaa !90
  %6 = load ptr, ptr %3, align 8
  %7 = getelementptr inbounds nuw %class.V3PreProcImp, ptr %6, i32 0, i32 3
  %8 = load ptr, ptr %7, align 8, !tbaa !247
  %9 = getelementptr inbounds nuw %class.V3PreLex, ptr %8, i32 0, i32 4
  %10 = load ptr, ptr %9, align 8, !tbaa !177
  %11 = getelementptr inbounds nuw %class.V3PreProcImp, ptr %6, i32 0, i32 3
  %12 = load ptr, ptr %11, align 8, !tbaa !247
  %13 = call noundef ptr @_ZN8V3PreLex13currentBufferEv(ptr noundef nonnull align 8 dereferenceable(264) %12)
  %14 = icmp ne ptr %10, %13
  %15 = xor i1 %14, true
  %16 = xor i1 %15, true
  %17 = zext i1 %16 to i64
  %18 = call i64 @llvm.expect.i64(i64 %17, i64 0)
  %19 = icmp ne i64 %18, 0
  br i1 %19, label %20, label %26

20:                                               ; preds = %2
  call void @_ZN11V3ErrorCodeC2ENS_2enE(ptr noundef nonnull align 1 dereferenceable(1) %5, i8 noundef zeroext 4)
  %21 = getelementptr inbounds nuw %class.V3ErrorCode, ptr %5, i32 0, i32 0
  %22 = load i8, ptr %21, align 1
  %23 = call noundef nonnull align 8 dereferenceable(112) ptr @_ZN7V3Error19v3errorPrepFileLineB5cxx11E11V3ErrorCodePKci(i8 %22, ptr noundef @.str.63, i32 noundef 557)
  %24 = call noundef nonnull align 8 dereferenceable(112) ptr @_ZN7V3Error10v3errorStrB5cxx11Ev()
  %25 = call noundef nonnull align 8 dereferenceable(8) ptr @_ZStlsISt11char_traitsIcEERSt13basic_ostreamIcT_ES5_PKc(ptr noundef nonnull align 8 dereferenceable(8) %24, ptr noundef @.str.125)
  call void @_Z15v3errorEndFatalRNSt7__cxx1119basic_ostringstreamIcSt11char_traitsIcESaIcEEE(ptr noundef nonnull align 8 dereferenceable(112) %25) #26
  unreachable

26:                                               ; preds = %2
  %27 = getelementptr inbounds nuw %class.V3PreProcImp, ptr %6, i32 0, i32 3
  %28 = load ptr, ptr %27, align 8, !tbaa !247
  %29 = load ptr, ptr %4, align 8, !tbaa !90
  call void @_ZN8V3PreLex9scanBytesERKNSt7__cxx1112basic_stringIcSt11char_traitsIcESaIcEEE(ptr noundef nonnull align 8 dereferenceable(264) %28, ptr noundef nonnull align 8 dereferenceable(32) %29)
  ret void
}