; Function Attrs: mustprogress uwtable
define dso_local void @_ZN12V3PreProcImp11unputStringERKNSt7__cxx1112basic_stringIcSt11char_traitsIcESaIcEEE(ptr noundef nonnull readonly align 8 captures(none) dereferenceable(1080) %0, ptr noundef nonnull align 8 dereferenceable(32) %1) local_unnamed_addr #5 align 2 {
  %3 = getelementptr inbounds nuw i8, ptr %0, i64 64
  %4 = load ptr, ptr %3, align 8, !tbaa !943
  %5 = getelementptr inbounds nuw i8, ptr %4, i64 96
  %6 = load ptr, ptr %5, align 8, !tbaa !831
  %7 = load ptr, ptr @_ZL15yy_buffer_stack, align 8, !tbaa !13
  %.not.i = icmp eq ptr %7, null
  br i1 %.not.i, label %_ZN8V3PreLex13currentBufferEv.exit, label %8

8:                                                ; preds = %2
  %9 = load i64, ptr @_ZL19yy_buffer_stack_top, align 8, !tbaa !16
  %10 = getelementptr inbounds nuw ptr, ptr %7, i64 %9
  %11 = load ptr, ptr %10, align 8, !tbaa !18
  br label %_ZN8V3PreLex13currentBufferEv.exit

_ZN8V3PreLex13currentBufferEv.exit:               ; preds = %2, %8
  %12 = phi ptr [ %11, %8 ], [ null, %2 ]
  %.not = icmp eq ptr %6, %12
  br i1 %.not, label %17, label %13, !prof !1012

13:                                               ; preds = %_ZN8V3PreLex13currentBufferEv.exit
  %14 = tail call noundef nonnull align 8 dereferenceable(112) ptr @_ZN7V3Error19v3errorPrepFileLineB5cxx11E11V3ErrorCodePKci(i8 4, ptr noundef nonnull @.str.63, i32 noundef 557)
  %15 = tail call noundef nonnull align 8 dereferenceable(112) ptr @_ZN7V3Error10v3errorStrB5cxx11Ev()
  %16 = tail call noundef nonnull align 8 dereferenceable(8) ptr @_ZStlsISt11char_traitsIcEERSt13basic_ostreamIcT_ES5_PKc(ptr noundef nonnull align 8 dereferenceable(8) %15, ptr noundef nonnull @.str.125)
  tail call void @_Z15v3errorEndFatalRNSt7__cxx1119basic_ostringstreamIcSt11char_traitsIcESaIcEEE(ptr noundef nonnull align 8 dereferenceable(112) %16) #42
  unreachable

17:                                               ; preds = %_ZN8V3PreLex13currentBufferEv.exit
  tail call void @_ZN8V3PreLex9scanBytesERKNSt7__cxx1112basic_stringIcSt11char_traitsIcESaIcEEE(ptr noundef nonnull align 8 dereferenceable(264) %4, ptr noundef nonnull align 8 dereferenceable(32) %1)
  ret void
}